; Function Attrs: nounwind uwtable
define dso_local noundef i32 @errtablecol(ptr noundef readonly captures(none) %0, i32 noundef %1) local_unnamed_addr #0 {
  %3 = getelementptr inbounds nuw i8, ptr %0, i64 64
  %4 = load ptr, ptr %3, align 8
  %5 = icmp sgt i32 %1, 0
  br i1 %5, label %6, label %16

6:                                                ; preds = %2
  %7 = load i32, ptr %4, align 8
  %.not = icmp sgt i32 %1, %7
  br i1 %.not, label %16, label %8

8:                                                ; preds = %6
  %9 = zext nneg i32 %7 to i64
  %10 = shl nuw nsw i64 %9, 4
  %11 = getelementptr i8, ptr %4, i64 %10
  %12 = getelementptr i8, ptr %11, i64 24
  %13 = zext nneg i32 %1 to i64
  %14 = getelementptr %struct.FormData_pg_attribute, ptr %12, i64 %13
  %15 = getelementptr i8, ptr %14, i64 -96
  br label %21

16:                                               ; preds = %6, %2
  %17 = getelementptr inbounds nuw i8, ptr %0, i64 72
  %18 = load i32, ptr %17, align 8
  %19 = trunc i32 %1 to i16
  %20 = tail call ptr @get_attname(i32 noundef %18, i16 noundef signext %19, i1 noundef zeroext false) #13
  br label %21

21:                                               ; preds = %16, %8
  %.0 = phi ptr [ %15, %8 ], [ %20, %16 ]
  %22 = getelementptr inbounds nuw i8, ptr %0, i64 56
  %23 = load ptr, ptr %22, align 8
  %24 = getelementptr inbounds nuw i8, ptr %23, i64 68
  %25 = load i32, ptr %24, align 4
  %26 = tail call ptr @get_namespace_name(i32 noundef %25) #13
  %27 = tail call i32 @err_generic_string(i32 noundef 115, ptr noundef %26) #13
  %28 = load ptr, ptr %22, align 8
  %29 = getelementptr inbounds nuw i8, ptr %28, i64 4
  %30 = tail call i32 @err_generic_string(i32 noundef 116, ptr noundef nonnull %29) #13
  %31 = tail call i32 @err_generic_string(i32 noundef 99, ptr noundef %.0) #13
  ret i32 0
}